; Function Attrs: mustprogress nofree norecurse nosync nounwind willreturn memory(read, argmem: readwrite, inaccessiblemem: none) uwtable
define void @_ZNK11OpenImageIO6v3_1_03pvt6TagMap7mapnameEv(ptr dead_on_unwind noalias writable writeonly sret(%"class.OpenImageIO::v3_1_0::basic_string_view") align 8 captures(none) initializes((0, 16)) %0, ptr noundef nonnull readonly align 8 captures(none) dereferenceable(8) %1) local_unnamed_addr #10 align 2 {
  %3 = load ptr, ptr %1, align 8, !tbaa !11
  %4 = getelementptr inbounds nuw i8, ptr %3, i64 160
  %5 = load ptr, ptr %4, align 8, !tbaa !53
  store ptr %5, ptr %0, align 8, !tbaa !3
  %6 = getelementptr inbounds nuw i8, ptr %0, i64 8
  %7 = getelementptr inbounds nuw i8, ptr %3, i64 168
  %8 = load i64, ptr %7, align 8, !tbaa !56
  store i64 %8, ptr %6, align 8, !tbaa !10
  ret void
}